target datalayout = "e-m:e-p270:32:32-p271:32:32-p272:64:64-i64:64-i128:128-f80:128-n8:16:32:64-S128"
target triple = "x86_64-pc-linux-gnu"

%struct.evp_aead_st = type { i8, i8, i8, i8, ptr, ptr, ptr, ptr, ptr, ptr, ptr }
%struct.evp_aead_ctx_st = type { ptr, ptr }

; Function Attrs: nounwind uwtable
define hidden i32 @EVP_AEAD_CTX_get_iv(ptr noundef %0, ptr noundef %1, ptr noundef %2) #0 {
  %4 = alloca i32, align 4
  %5 = alloca ptr, align 8
  %6 = alloca ptr, align 8
  %7 = alloca ptr, align 8
  store ptr %0, ptr %5, align 8, !tbaa !16
  store ptr %1, ptr %6, align 8, !tbaa !38
  store ptr %2, ptr %7, align 8, !tbaa !31
  %8 = load ptr, ptr %5, align 8, !tbaa !16
  %9 = getelementptr inbounds nuw %struct.evp_aead_ctx_st, ptr %8, i32 0, i32 0
  %10 = load ptr, ptr %9, align 8, !tbaa !25
  %11 = getelementptr inbounds nuw %struct.evp_aead_st, ptr %10, i32 0, i32 10
  %12 = load ptr, ptr %11, align 8, !tbaa !40
  %13 = icmp eq ptr %12, null
  br i1 %13, label %14, label %15

14:                                               ; preds = %3
  store i32 0, ptr %4, align 4
  br label %25

15:                                               ; preds = %3
  %16 = load ptr, ptr %5, align 8, !tbaa !16
  %17 = getelementptr inbounds nuw %struct.evp_aead_ctx_st, ptr %16, i32 0, i32 0
  %18 = load ptr, ptr %17, align 8, !tbaa !25
  %19 = getelementptr inbounds nuw %struct.evp_aead_st, ptr %18, i32 0, i32 10
  %20 = load ptr, ptr %19, align 8, !tbaa !40
  %21 = load ptr, ptr %5, align 8, !tbaa !16
  %22 = load ptr, ptr %6, align 8, !tbaa !38
  %23 = load ptr, ptr %7, align 8, !tbaa !31
  %24 = call i32 %20(ptr noundef %21, ptr noundef %22, ptr noundef %23)
  store i32 %24, ptr %4, align 4
  br label %25

25:                                               ; preds = %15, %14
  %26 = load i32, ptr %4, align 4
  ret i32 %26
}