; Function Attrs: nounwind uwtable
define hidden i32 @EVP_AEAD_CTX_get_iv(ptr noundef %0, ptr noundef %1, ptr noundef %2) local_unnamed_addr #3 {
  %4 = load ptr, ptr %0, align 8, !tbaa !15
  %5 = getelementptr inbounds nuw i8, ptr %4, i64 56
  %6 = load ptr, ptr %5, align 8, !tbaa !25
  %7 = icmp eq ptr %6, null
  br i1 %7, label %10, label %8

8:                                                ; preds = %3
  %9 = tail call i32 %6(ptr noundef nonnull %0, ptr noundef %1, ptr noundef %2) #5
  br label %10

10:                                               ; preds = %3, %8
  %.0 = phi i32 [ %9, %8 ], [ 0, %3 ]
  ret i32 %.0
}